target datalayout = "e-m:e-p270:32:32-p271:32:32-p272:64:64-i64:64-i128:128-f80:128-n8:16:32:64-S128"
target triple = "x86_64-pc-linux-gnu"

%struct.__loadu_si128 = type { <2 x i64> }
%struct.__storeu_si128 = type { <2 x i64> }

; Function Attrs: alwaysinline mustprogress nounwind uwtable
define internal void @_ZL16_mm_storeu_si128PDv2_xS_(ptr noundef %0, <2 x i64> noundef %1) #9 {
  %3 = alloca ptr, align 8
  %4 = alloca <2 x i64>, align 16
  store ptr %0, ptr %3, align 8, !tbaa !22
  store <2 x i64> %1, ptr %4, align 16, !tbaa !18
  %5 = load <2 x i64>, ptr %4, align 16, !tbaa !18
  %6 = load ptr, ptr %3, align 8, !tbaa !22
  %7 = getelementptr inbounds nuw %struct.__storeu_si128, ptr %6, i32 0, i32 0
  store <2 x i64> %5, ptr %7, align 1, !tbaa !18
  ret void
}

; Function Attrs: alwaysinline mustprogress nounwind uwtable
define internal noundef <2 x i64> @_ZL17_mm_unpackhi_epi8Dv2_xS_(<2 x i64> noundef %0, <2 x i64> noundef %1) #9 {
  %3 = alloca <2 x i64>, align 16
  %4 = alloca <2 x i64>, align 16
  store <2 x i64> %0, ptr %3, align 16, !tbaa !18
  store <2 x i64> %1, ptr %4, align 16, !tbaa !18
  %5 = load <2 x i64>, ptr %3, align 16, !tbaa !18
  %6 = bitcast <2 x i64> %5 to <16 x i8>
  %7 = load <2 x i64>, ptr %4, align 16, !tbaa !18
  %8 = bitcast <2 x i64> %7 to <16 x i8>
  %9 = shufflevector <16 x i8> %6, <16 x i8> %8, <16 x i32> <i32 8, i32 24, i32 9, i32 25, i32 10, i32 26, i32 11, i32 27, i32 12, i32 28, i32 13, i32 29, i32 14, i32 30, i32 15, i32 31>
  %10 = bitcast <16 x i8> %9 to <2 x i64>
  ret <2 x i64> %10
}

; Function Attrs: alwaysinline mustprogress nounwind uwtable
define internal noundef <2 x i64> @_ZL17_mm_unpacklo_epi8Dv2_xS_(<2 x i64> noundef %0, <2 x i64> noundef %1) #9 {
  %3 = alloca <2 x i64>, align 16
  %4 = alloca <2 x i64>, align 16
  store <2 x i64> %0, ptr %3, align 16, !tbaa !18
  store <2 x i64> %1, ptr %4, align 16, !tbaa !18
  %5 = load <2 x i64>, ptr %3, align 16, !tbaa !18
  %6 = bitcast <2 x i64> %5 to <16 x i8>
  %7 = load <2 x i64>, ptr %4, align 16, !tbaa !18
  %8 = bitcast <2 x i64> %7 to <16 x i8>
  %9 = shufflevector <16 x i8> %6, <16 x i8> %8, <16 x i32> <i32 0, i32 16, i32 1, i32 17, i32 2, i32 18, i32 3, i32 19, i32 4, i32 20, i32 5, i32 21, i32 6, i32 22, i32 7, i32 23>
  %10 = bitcast <16 x i8> %9 to <2 x i64>
  ret <2 x i64> %10
}

; Function Attrs: alwaysinline mustprogress nounwind uwtable
define internal noundef <2 x i64> @_ZL15_mm_loadu_si128PKDv2_x(ptr noundef %0) #9 {
  %2 = alloca ptr, align 8
  store ptr %0, ptr %2, align 8, !tbaa !22
  %3 = load ptr, ptr %2, align 8, !tbaa !22
  %4 = getelementptr inbounds nuw %struct.__loadu_si128, ptr %3, i32 0, i32 0
  %5 = load <2 x i64>, ptr %4, align 1, !tbaa !18
  ret <2 x i64> %5
}

; Function Attrs: mustprogress uwtable
define internal void @_ZN7Imf_3_412_GLOBAL__N_115interleave_sse2EPKcmPc(ptr noundef %0, i64 noundef %1, ptr noundef %2) #8 {
  %4 = alloca ptr, align 8
  %5 = alloca i64, align 8
  %6 = alloca ptr, align 8
  %7 = alloca i64, align 8
  %8 = alloca ptr, align 8
  %9 = alloca ptr, align 8
  %10 = alloca ptr, align 8
  %11 = alloca i64, align 8
  %12 = alloca <2 x i64>, align 16
  %13 = alloca <2 x i64>, align 16
  %14 = alloca <2 x i64>, align 16
  %15 = alloca <2 x i64>, align 16
  %16 = alloca ptr, align 8
  %17 = alloca ptr, align 8
  %18 = alloca ptr, align 8
  %19 = alloca i64, align 8
  store ptr %0, ptr %4, align 8, !tbaa !17
  store i64 %1, ptr %5, align 8, !tbaa !8
  store ptr %2, ptr %6, align 8, !tbaa !17
  call void @llvm.lifetime.start.p0(i64 8, ptr %7) #11
  %20 = load i64, ptr %5, align 8, !tbaa !8
  %21 = udiv i64 %20, 32
  store i64 %21, ptr %7, align 8, !tbaa !8
  call void @llvm.lifetime.start.p0(i64 8, ptr %8) #11
  %22 = load ptr, ptr %4, align 8, !tbaa !17
  store ptr %22, ptr %8, align 8, !tbaa !22
  call void @llvm.lifetime.start.p0(i64 8, ptr %9) #11
  %23 = load ptr, ptr %4, align 8, !tbaa !17
  %24 = load i64, ptr %5, align 8, !tbaa !8
  %25 = add i64 %24, 1
  %26 = udiv i64 %25, 2
  %27 = getelementptr inbounds nuw i8, ptr %23, i64 %26
  store ptr %27, ptr %9, align 8, !tbaa !22
  call void @llvm.lifetime.start.p0(i64 8, ptr %10) #11
  %28 = load ptr, ptr %6, align 8, !tbaa !17
  store ptr %28, ptr %10, align 8, !tbaa !22
  call void @llvm.lifetime.start.p0(i64 8, ptr %11) #11
  store i64 0, ptr %11, align 8, !tbaa !8
  br label %29

29:                                               ; preds = %53, %3
  %30 = load i64, ptr %11, align 8, !tbaa !8
  %31 = load i64, ptr %7, align 8, !tbaa !8
  %32 = icmp ult i64 %30, %31
  br i1 %32, label %34, label %33

33:                                               ; preds = %29
  call void @llvm.lifetime.end.p0(i64 8, ptr %11) #11
  br label %56

34:                                               ; preds = %29
  call void @llvm.lifetime.start.p0(i64 16, ptr %12) #11
  %35 = load ptr, ptr %8, align 8, !tbaa !22
  %36 = getelementptr inbounds nuw <2 x i64>, ptr %35, i32 1
  store ptr %36, ptr %8, align 8, !tbaa !22
  %37 = call noundef <2 x i64> @_ZL15_mm_loadu_si128PKDv2_x(ptr noundef %35)
  store <2 x i64> %37, ptr %12, align 16, !tbaa !18
  call void @llvm.lifetime.start.p0(i64 16, ptr %13) #11
  %38 = load ptr, ptr %9, align 8, !tbaa !22
  %39 = getelementptr inbounds nuw <2 x i64>, ptr %38, i32 1
  store ptr %39, ptr %9, align 8, !tbaa !22
  %40 = call noundef <2 x i64> @_ZL15_mm_loadu_si128PKDv2_x(ptr noundef %38)
  store <2 x i64> %40, ptr %13, align 16, !tbaa !18
  call void @llvm.lifetime.start.p0(i64 16, ptr %14) #11
  %41 = load <2 x i64>, ptr %12, align 16, !tbaa !18
  %42 = load <2 x i64>, ptr %13, align 16, !tbaa !18
  %43 = call noundef <2 x i64> @_ZL17_mm_unpacklo_epi8Dv2_xS_(<2 x i64> noundef %41, <2 x i64> noundef %42)
  store <2 x i64> %43, ptr %14, align 16, !tbaa !18
  call void @llvm.lifetime.start.p0(i64 16, ptr %15) #11
  %44 = load <2 x i64>, ptr %12, align 16, !tbaa !18
  %45 = load <2 x i64>, ptr %13, align 16, !tbaa !18
  %46 = call noundef <2 x i64> @_ZL17_mm_unpackhi_epi8Dv2_xS_(<2 x i64> noundef %44, <2 x i64> noundef %45)
  store <2 x i64> %46, ptr %15, align 16, !tbaa !18
  %47 = load ptr, ptr %10, align 8, !tbaa !22
  %48 = getelementptr inbounds nuw <2 x i64>, ptr %47, i32 1
  store ptr %48, ptr %10, align 8, !tbaa !22
  %49 = load <2 x i64>, ptr %14, align 16, !tbaa !18
  call void @_ZL16_mm_storeu_si128PDv2_xS_(ptr noundef %47, <2 x i64> noundef %49)
  %50 = load ptr, ptr %10, align 8, !tbaa !22
  %51 = getelementptr inbounds nuw <2 x i64>, ptr %50, i32 1
  store ptr %51, ptr %10, align 8, !tbaa !22
  %52 = load <2 x i64>, ptr %15, align 16, !tbaa !18
  call void @_ZL16_mm_storeu_si128PDv2_xS_(ptr noundef %50, <2 x i64> noundef %52)
  call void @llvm.lifetime.end.p0(i64 16, ptr %15) #11
  call void @llvm.lifetime.end.p0(i64 16, ptr %14) #11
  call void @llvm.lifetime.end.p0(i64 16, ptr %13) #11
  call void @llvm.lifetime.end.p0(i64 16, ptr %12) #11
  br label %53

53:                                               ; preds = %34
  %54 = load i64, ptr %11, align 8, !tbaa !8
  %55 = add i64 %54, 1
  store i64 %55, ptr %11, align 8, !tbaa !8
  br label %29, !llvm.loop !28

56:                                               ; preds = %33
  call void @llvm.lifetime.start.p0(i64 8, ptr %16) #11
  %57 = load ptr, ptr %8, align 8, !tbaa !22
  store ptr %57, ptr %16, align 8, !tbaa !17
  call void @llvm.lifetime.start.p0(i64 8, ptr %17) #11
  %58 = load ptr, ptr %9, align 8, !tbaa !22
  store ptr %58, ptr %17, align 8, !tbaa !17
  call void @llvm.lifetime.start.p0(i64 8, ptr %18) #11
  %59 = load ptr, ptr %10, align 8, !tbaa !22
  store ptr %59, ptr %18, align 8, !tbaa !17
  call void @llvm.lifetime.start.p0(i64 8, ptr %19) #11
  %60 = load i64, ptr %7, align 8, !tbaa !8
  %61 = mul i64 %60, 32
  store i64 %61, ptr %19, align 8, !tbaa !8
  br label %62

62:                                               ; preds = %83, %56
  %63 = load i64, ptr %19, align 8, !tbaa !8
  %64 = load i64, ptr %5, align 8, !tbaa !8
  %65 = icmp ult i64 %63, %64
  br i1 %65, label %67, label %66

66:                                               ; preds = %62
  call void @llvm.lifetime.end.p0(i64 8, ptr %19) #11
  br label %86

67:                                               ; preds = %62
  %68 = load i64, ptr %19, align 8, !tbaa !8
  %69 = urem i64 %68, 2
  %70 = icmp eq i64 %69, 0
  br i1 %70, label %71, label %75

71:                                               ; preds = %67
  %72 = load ptr, ptr %16, align 8, !tbaa !17
  %73 = getelementptr inbounds nuw i8, ptr %72, i32 1
  store ptr %73, ptr %16, align 8, !tbaa !17
  %74 = load i8, ptr %72, align 1, !tbaa !18
  br label %79

75:                                               ; preds = %67
  %76 = load ptr, ptr %17, align 8, !tbaa !17
  %77 = getelementptr inbounds nuw i8, ptr %76, i32 1
  store ptr %77, ptr %17, align 8, !tbaa !17
  %78 = load i8, ptr %76, align 1, !tbaa !18
  br label %79

79:                                               ; preds = %75, %71
  %80 = phi i8 [ %74, %71 ], [ %78, %75 ]
  %81 = load ptr, ptr %18, align 8, !tbaa !17
  %82 = getelementptr inbounds nuw i8, ptr %81, i32 1
  store ptr %82, ptr %18, align 8, !tbaa !17
  store i8 %80, ptr %81, align 1, !tbaa !18
  br label %83

83:                                               ; preds = %79
  %84 = load i64, ptr %19, align 8, !tbaa !8
  %85 = add i64 %84, 1
  store i64 %85, ptr %19, align 8, !tbaa !8
  br label %62, !llvm.loop !29

86:                                               ; preds = %66
  call void @llvm.lifetime.end.p0(i64 8, ptr %18) #11
  call void @llvm.lifetime.end.p0(i64 8, ptr %17) #11
  call void @llvm.lifetime.end.p0(i64 8, ptr %16) #11
  call void @llvm.lifetime.end.p0(i64 8, ptr %10) #11
  call void @llvm.lifetime.end.p0(i64 8, ptr %9) #11
  call void @llvm.lifetime.end.p0(i64 8, ptr %8) #11
  call void @llvm.lifetime.end.p0(i64 8, ptr %7) #11
  ret void
}