; Function Attrs: mustprogress nofree norecurse nosync nounwind memory(read, argmem: readwrite, inaccessiblemem: none) uwtable
define internal void @_ZN7Imf_3_412_GLOBAL__N_115interleave_sse2EPKcmPc(ptr noundef readonly captures(none) %0, i64 noundef %1, ptr noundef writeonly captures(none) %2) #9 {
  %4 = lshr i64 %1, 5
  %5 = add i64 %1, 1
  %6 = lshr i64 %5, 1
  %7 = getelementptr inbounds nuw i8, ptr %0, i64 %6
  %.not50 = icmp ult i64 %1, 32
  br i1 %.not50, label %._crit_edge, label %.lr.ph

._crit_edge:                                      ; preds = %.lr.ph, %3
  %.034.lcssa = phi ptr [ %2, %3 ], [ %16, %.lr.ph ]
  %.033.lcssa = phi ptr [ %7, %3 ], [ %11, %.lr.ph ]
  %.032.lcssa = phi ptr [ %0, %3 ], [ %9, %.lr.ph ]
  %8 = and i64 %1, -32
  %.not51 = icmp eq i64 %8, %1
  br i1 %.not51, label %._crit_edge49, label %.lr.ph48

.lr.ph:                                           ; preds = %3, %.lr.ph
  %.03240 = phi ptr [ %9, %.lr.ph ], [ %0, %3 ]
  %.03339 = phi ptr [ %11, %.lr.ph ], [ %7, %3 ]
  %.03438 = phi ptr [ %16, %.lr.ph ], [ %2, %3 ]
  %.03537 = phi i64 [ %17, %.lr.ph ], [ 0, %3 ]
  %9 = getelementptr inbounds nuw i8, ptr %.03240, i64 16
  %10 = load <16 x i8>, ptr %.03240, align 1, !tbaa !13
  %11 = getelementptr inbounds nuw i8, ptr %.03339, i64 16
  %12 = load <16 x i8>, ptr %.03339, align 1, !tbaa !13
  %13 = shufflevector <16 x i8> %10, <16 x i8> %12, <16 x i32> <i32 0, i32 16, i32 1, i32 17, i32 2, i32 18, i32 3, i32 19, i32 4, i32 20, i32 5, i32 21, i32 6, i32 22, i32 7, i32 23>
  %14 = shufflevector <16 x i8> %10, <16 x i8> %12, <16 x i32> <i32 8, i32 24, i32 9, i32 25, i32 10, i32 26, i32 11, i32 27, i32 12, i32 28, i32 13, i32 29, i32 14, i32 30, i32 15, i32 31>
  %15 = getelementptr inbounds nuw i8, ptr %.03438, i64 16
  store <16 x i8> %13, ptr %.03438, align 1, !tbaa !13
  %16 = getelementptr inbounds nuw i8, ptr %.03438, i64 32
  store <16 x i8> %14, ptr %15, align 1, !tbaa !13
  %17 = add nuw nsw i64 %.03537, 1
  %exitcond.not = icmp eq i64 %17, %4
  br i1 %exitcond.not, label %._crit_edge, label %.lr.ph, !llvm.loop !26

._crit_edge49:                                    ; preds = %.lr.ph48, %._crit_edge
  ret void

.lr.ph48:                                         ; preds = %._crit_edge, %.lr.ph48
  %.046 = phi i64 [ %21, %.lr.ph48 ], [ %8, %._crit_edge ]
  %.02845 = phi ptr [ %20, %.lr.ph48 ], [ %.034.lcssa, %._crit_edge ]
  %.02944 = phi ptr [ %.1, %.lr.ph48 ], [ %.033.lcssa, %._crit_edge ]
  %.03043 = phi ptr [ %.131, %.lr.ph48 ], [ %.032.lcssa, %._crit_edge ]
  %18 = and i64 %.046, 1
  %.not = icmp eq i64 %18, 0
  %.131.idx = xor i64 %18, 1
  %.131 = getelementptr inbounds nuw i8, ptr %.03043, i64 %.131.idx
  %.1 = getelementptr inbounds nuw i8, ptr %.02944, i64 %18
  %.in = select i1 %.not, ptr %.03043, ptr %.02944
  %19 = load i8, ptr %.in, align 1, !tbaa !13
  %20 = getelementptr inbounds nuw i8, ptr %.02845, i64 1
  store i8 %19, ptr %.02845, align 1, !tbaa !13
  %21 = add nuw i64 %.046, 1
  %22 = icmp ult i64 %21, %1
  br i1 %22, label %.lr.ph48, label %._crit_edge49, !llvm.loop !27
}